target datalayout = "e-m:e-p270:32:32-p271:32:32-p272:64:64-i64:64-i128:128-f80:128-n8:16:32:64-S128"
target triple = "x86_64-pc-linux-gnu"

%struct.OSSL_HPKE_SUITE = type { i16, i16, i16 }
%struct.synonymttab_t = type { i16, [4 x ptr] }

@.str = private unnamed_addr constant [35 x i8] c"../openssl/crypto/hpke/hpke_util.c\00", align 1
@__func__.ossl_hpke_str2suite = private unnamed_addr constant [20 x i8] c"ossl_hpke_str2suite\00", align 1

; Function Attrs: nounwind uwtable
define internal zeroext i16 @synonyms_name2id(ptr noundef %0, ptr noundef %1, i64 noundef %2) #0 {
  %4 = alloca i16, align 2
  %5 = alloca ptr, align 8
  %6 = alloca ptr, align 8
  %7 = alloca i64, align 8
  %8 = alloca i64, align 8
  %9 = alloca i64, align 8
  %10 = alloca i32, align 4
  store ptr %0, ptr %5, align 8, !tbaa !3
  store ptr %1, ptr %6, align 8, !tbaa !34
  store i64 %2, ptr %7, align 8, !tbaa !22
  call void @llvm.lifetime.start.p0(i64 8, ptr %8) #5
  call void @llvm.lifetime.start.p0(i64 8, ptr %9) #5
  store i64 0, ptr %8, align 8, !tbaa !22
  br label %11

11:                                               ; preds = %41, %3
  %12 = load i64, ptr %8, align 8, !tbaa !22
  %13 = load i64, ptr %7, align 8, !tbaa !22
  %14 = icmp ult i64 %12, %13
  br i1 %14, label %15, label %44

15:                                               ; preds = %11
  store i64 0, ptr %9, align 8, !tbaa !22
  br label %16

16:                                               ; preds = %37, %15
  %17 = load i64, ptr %9, align 8, !tbaa !22
  %18 = icmp ult i64 %17, 4
  br i1 %18, label %19, label %40

19:                                               ; preds = %16
  %20 = load ptr, ptr %5, align 8, !tbaa !3
  %21 = load ptr, ptr %6, align 8, !tbaa !34
  %22 = load i64, ptr %8, align 8, !tbaa !22
  %23 = getelementptr inbounds nuw %struct.synonymttab_t, ptr %21, i64 %22
  %24 = getelementptr inbounds nuw %struct.synonymttab_t, ptr %23, i32 0, i32 1
  %25 = load i64, ptr %9, align 8, !tbaa !22
  %26 = getelementptr inbounds nuw [4 x ptr], ptr %24, i64 0, i64 %25
  %27 = load ptr, ptr %26, align 8, !tbaa !3
  %28 = call i32 @OPENSSL_strcasecmp(ptr noundef %20, ptr noundef %27)
  %29 = icmp eq i32 %28, 0
  br i1 %29, label %30, label %36

30:                                               ; preds = %19
  %31 = load ptr, ptr %6, align 8, !tbaa !34
  %32 = load i64, ptr %8, align 8, !tbaa !22
  %33 = getelementptr inbounds nuw %struct.synonymttab_t, ptr %31, i64 %32
  %34 = getelementptr inbounds nuw %struct.synonymttab_t, ptr %33, i32 0, i32 0
  %35 = load i16, ptr %34, align 8, !tbaa !44
  store i16 %35, ptr %4, align 2
  store i32 1, ptr %10, align 4
  br label %45

36:                                               ; preds = %19
  br label %37

37:                                               ; preds = %36
  %38 = load i64, ptr %9, align 8, !tbaa !22
  %39 = add i64 %38, 1
  store i64 %39, ptr %9, align 8, !tbaa !22
  br label %16, !llvm.loop !46

40:                                               ; preds = %16
  br label %41

41:                                               ; preds = %40
  %42 = load i64, ptr %8, align 8, !tbaa !22
  %43 = add i64 %42, 1
  store i64 %43, ptr %8, align 8, !tbaa !22
  br label %11, !llvm.loop !47

44:                                               ; preds = %11
  store i16 0, ptr %4, align 2
  store i32 1, ptr %10, align 4
  br label %45

45:                                               ; preds = %44, %30
  call void @llvm.lifetime.end.p0(i64 8, ptr %9) #5
  call void @llvm.lifetime.end.p0(i64 8, ptr %8) #5
  %46 = load i16, ptr %4, align 2
  ret i16 %46
}

; Function Attrs: nounwind uwtable
define i32 @ossl_hpke_str2suite(ptr noundef %0, ptr noundef %1) #0 {
  %3 = alloca i32, align 4
  %4 = alloca ptr, align 8
  %5 = alloca ptr, align 8
  %6 = alloca i16, align 2
  %7 = alloca i16, align 2
  %8 = alloca i16, align 2
  %9 = alloca ptr, align 8
  %10 = alloca ptr, align 8
  %11 = alloca i64, align 8
  %12 = alloca i32, align 4
  %13 = alloca i32, align 4
  %14 = alloca i32, align 4
  %15 = alloca i32, align 4
  %16 = alloca ptr, align 8
  store ptr %0, ptr %4, align 8, !tbaa !3
  store ptr %1, ptr %5, align 8, !tbaa !34
  call void @llvm.lifetime.start.p0(i64 2, ptr %6) #5
  store i16 0, ptr %6, align 2, !tbaa !17
  call void @llvm.lifetime.start.p0(i64 2, ptr %7) #5
  store i16 0, ptr %7, align 2, !tbaa !17
  call void @llvm.lifetime.start.p0(i64 2, ptr %8) #5
  store i16 0, ptr %8, align 2, !tbaa !17
  call void @llvm.lifetime.start.p0(i64 8, ptr %9) #5
  store ptr null, ptr %9, align 8, !tbaa !3
  call void @llvm.lifetime.start.p0(i64 8, ptr %10) #5
  store ptr null, ptr %10, align 8, !tbaa !3
  call void @llvm.lifetime.start.p0(i64 8, ptr %11) #5
  call void @llvm.lifetime.start.p0(i64 4, ptr %12) #5
  store i32 0, ptr %12, align 4, !tbaa !8
  call void @llvm.lifetime.start.p0(i64 4, ptr %13) #5
  store i32 0, ptr %13, align 4, !tbaa !8
  call void @llvm.lifetime.start.p0(i64 4, ptr %14) #5
  store i32 0, ptr %14, align 4, !tbaa !8
  %17 = load ptr, ptr %4, align 8, !tbaa !3
  %18 = icmp eq ptr %17, null
  br i1 %18, label %28, label %19

19:                                               ; preds = %2
  %20 = load ptr, ptr %4, align 8, !tbaa !3
  %21 = getelementptr inbounds i8, ptr %20, i64 0
  %22 = load i8, ptr %21, align 1, !tbaa !37
  %23 = sext i8 %22 to i32
  %24 = icmp eq i32 %23, 0
  br i1 %24, label %28, label %25

25:                                               ; preds = %19
  %26 = load ptr, ptr %5, align 8, !tbaa !34
  %27 = icmp eq ptr %26, null
  br i1 %27, label %28, label %29

28:                                               ; preds = %25, %19, %2
  call void @ERR_new()
  call void @ERR_set_debug(ptr noundef @.str, i32 noundef 460, ptr noundef @__func__.ossl_hpke_str2suite)
  call void (i32, i32, ptr, ...) @ERR_set_error(i32 noundef 15, i32 noundef 786690, ptr noundef null)
  store i32 0, ptr %3, align 4
  store i32 1, ptr %15, align 4
  br label %154

29:                                               ; preds = %25
  %30 = load ptr, ptr %4, align 8, !tbaa !3
  %31 = call i64 @OPENSSL_strnlen(ptr noundef %30, i64 noundef 38)
  store i64 %31, ptr %11, align 8, !tbaa !22
  %32 = load i64, ptr %11, align 8, !tbaa !22
  %33 = icmp uge i64 %32, 38
  br i1 %33, label %34, label %35

34:                                               ; preds = %29
  call void @ERR_new()
  call void @ERR_set_debug(ptr noundef @.str, i32 noundef 465, ptr noundef @__func__.ossl_hpke_str2suite)
  call void (i32, i32, ptr, ...) @ERR_set_error(i32 noundef 15, i32 noundef 524550, ptr noundef null)
  store i32 0, ptr %3, align 4
  store i32 1, ptr %15, align 4
  br label %154

35:                                               ; preds = %29
  %36 = load ptr, ptr %4, align 8, !tbaa !3
  %37 = load i64, ptr %11, align 8, !tbaa !22
  %38 = sub i64 %37, 1
  %39 = getelementptr inbounds nuw i8, ptr %36, i64 %38
  %40 = load i8, ptr %39, align 1, !tbaa !37
  %41 = sext i8 %40 to i32
  %42 = icmp eq i32 %41, 44
  br i1 %42, label %43, label %44

43:                                               ; preds = %35
  store i32 0, ptr %3, align 4
  store i32 1, ptr %15, align 4
  br label %154

44:                                               ; preds = %35
  %45 = load ptr, ptr %4, align 8, !tbaa !3
  store ptr %45, ptr %9, align 8, !tbaa !3
  br label %46

46:                                               ; preds = %60, %44
  %47 = load ptr, ptr %9, align 8, !tbaa !3
  %48 = load i8, ptr %47, align 1, !tbaa !37
  %49 = sext i8 %48 to i32
  %50 = icmp ne i32 %49, 0
  br i1 %50, label %51, label %63

51:                                               ; preds = %46
  %52 = load ptr, ptr %9, align 8, !tbaa !3
  %53 = load i8, ptr %52, align 1, !tbaa !37
  %54 = sext i8 %53 to i32
  %55 = icmp eq i32 %54, 44
  br i1 %55, label %56, label %59

56:                                               ; preds = %51
  %57 = load i32, ptr %14, align 4, !tbaa !8
  %58 = add nsw i32 %57, 1
  store i32 %58, ptr %14, align 4, !tbaa !8
  br label %59

59:                                               ; preds = %56, %51
  br label %60

60:                                               ; preds = %59
  %61 = load ptr, ptr %9, align 8, !tbaa !3
  %62 = getelementptr inbounds nuw i8, ptr %61, i32 1
  store ptr %62, ptr %9, align 8, !tbaa !3
  br label %46, !llvm.loop !38

63:                                               ; preds = %46
  %64 = load i32, ptr %14, align 4, !tbaa !8
  %65 = icmp ne i32 %64, 2
  br i1 %65, label %66, label %67

66:                                               ; preds = %63
  store i32 0, ptr %3, align 4
  store i32 1, ptr %15, align 4
  br label %154

67:                                               ; preds = %63
  %68 = load ptr, ptr %4, align 8, !tbaa !3
  %69 = load i64, ptr %11, align 8, !tbaa !22
  %70 = add i64 %69, 1
  %71 = call noalias ptr @CRYPTO_memdup(ptr noundef %68, i64 noundef %70, ptr noundef @.str, i32 noundef 484)
  store ptr %71, ptr %10, align 8, !tbaa !3
  %72 = load ptr, ptr %10, align 8, !tbaa !3
  %73 = icmp eq ptr %72, null
  br i1 %73, label %74, label %75

74:                                               ; preds = %67
  br label %151

75:                                               ; preds = %67
  %76 = load ptr, ptr %10, align 8, !tbaa !3
  store ptr %76, ptr %9, align 8, !tbaa !3
  br label %77

77:                                               ; preds = %133, %75
  %78 = load ptr, ptr %9, align 8, !tbaa !3
  %79 = icmp ne ptr %78, null
  br i1 %79, label %80, label %83

80:                                               ; preds = %77
  %81 = load i32, ptr %12, align 4, !tbaa !8
  %82 = icmp slt i32 %81, 3
  br label %83

83:                                               ; preds = %80, %77
  %84 = phi i1 [ false, %77 ], [ %82, %80 ]
  br i1 %84, label %85, label %134

85:                                               ; preds = %83
  call void @llvm.lifetime.start.p0(i64 8, ptr %16) #5
  %86 = load ptr, ptr %9, align 8, !tbaa !3
  %87 = call ptr @strchr(ptr noundef %86, i32 noundef 44) #6
  store ptr %87, ptr %16, align 8, !tbaa !3
  %88 = load ptr, ptr %16, align 8, !tbaa !3
  %89 = icmp ne ptr %88, null
  br i1 %89, label %90, label %92

90:                                               ; preds = %85
  %91 = load ptr, ptr %16, align 8, !tbaa !3
  store i8 0, ptr %91, align 1, !tbaa !37
  br label %92

92:                                               ; preds = %90, %85
  %93 = load i32, ptr %12, align 4, !tbaa !8
  %94 = icmp eq i32 %93, 0
  br i1 %94, label %95, label %101

95:                                               ; preds = %92
  %96 = load ptr, ptr %9, align 8, !tbaa !3
  %97 = call zeroext i16 @synonyms_name2id(ptr noundef %96, ptr noundef @kemstrtab, i64 noundef 5)
  store i16 %97, ptr %6, align 2, !tbaa !17
  %98 = zext i16 %97 to i32
  %99 = icmp eq i32 %98, 0
  br i1 %99, label %100, label %101

100:                                              ; preds = %95
  store i32 5, ptr %15, align 4
  br label %131

101:                                              ; preds = %95, %92
  %102 = load i32, ptr %12, align 4, !tbaa !8
  %103 = icmp eq i32 %102, 1
  br i1 %103, label %104, label %110

104:                                              ; preds = %101
  %105 = load ptr, ptr %9, align 8, !tbaa !3
  %106 = call zeroext i16 @synonyms_name2id(ptr noundef %105, ptr noundef @kdfstrtab, i64 noundef 3)
  store i16 %106, ptr %7, align 2, !tbaa !17
  %107 = zext i16 %106 to i32
  %108 = icmp eq i32 %107, 0
  br i1 %108, label %109, label %110

109:                                              ; preds = %104
  store i32 5, ptr %15, align 4
  br label %131

110:                                              ; preds = %104, %101
  %111 = load i32, ptr %12, align 4, !tbaa !8
  %112 = icmp eq i32 %111, 2
  br i1 %112, label %113, label %119

113:                                              ; preds = %110
  %114 = load ptr, ptr %9, align 8, !tbaa !3
  %115 = call zeroext i16 @synonyms_name2id(ptr noundef %114, ptr noundef @aeadstrtab, i64 noundef 4)
  store i16 %115, ptr %8, align 2, !tbaa !17
  %116 = zext i16 %115 to i32
  %117 = icmp eq i32 %116, 0
  br i1 %117, label %118, label %119

118:                                              ; preds = %113
  store i32 5, ptr %15, align 4
  br label %131

119:                                              ; preds = %113, %110
  br label %120

120:                                              ; preds = %119
  br label %121

121:                                              ; preds = %120
  %122 = load ptr, ptr %16, align 8, !tbaa !3
  %123 = icmp eq ptr %122, null
  br i1 %123, label %124, label %125

124:                                              ; preds = %121
  store ptr null, ptr %9, align 8, !tbaa !3
  br label %128

125:                                              ; preds = %121
  %126 = load ptr, ptr %16, align 8, !tbaa !3
  %127 = getelementptr inbounds i8, ptr %126, i64 1
  store ptr %127, ptr %9, align 8, !tbaa !3
  br label %128

128:                                              ; preds = %125, %124
  %129 = load i32, ptr %12, align 4, !tbaa !8
  %130 = add nsw i32 %129, 1
  store i32 %130, ptr %12, align 4, !tbaa !8
  store i32 0, ptr %15, align 4
  br label %131

131:                                              ; preds = %118, %109, %100, %128
  call void @llvm.lifetime.end.p0(i64 8, ptr %16) #5
  %132 = load i32, ptr %15, align 4
  switch i32 %132, label %154 [
    i32 0, label %133
    i32 5, label %151
  ]

133:                                              ; preds = %131
  br label %77, !llvm.loop !39

134:                                              ; preds = %83
  %135 = load ptr, ptr %9, align 8, !tbaa !3
  %136 = icmp ne ptr %135, null
  br i1 %136, label %140, label %137

137:                                              ; preds = %134
  %138 = load i32, ptr %12, align 4, !tbaa !8
  %139 = icmp ne i32 %138, 3
  br i1 %139, label %140, label %141

140:                                              ; preds = %137, %134
  br label %151

141:                                              ; preds = %137
  %142 = load i16, ptr %6, align 2, !tbaa !17
  %143 = load ptr, ptr %5, align 8, !tbaa !34
  %144 = getelementptr inbounds nuw %struct.OSSL_HPKE_SUITE, ptr %143, i32 0, i32 0
  store i16 %142, ptr %144, align 2, !tbaa !40
  %145 = load i16, ptr %7, align 2, !tbaa !17
  %146 = load ptr, ptr %5, align 8, !tbaa !34
  %147 = getelementptr inbounds nuw %struct.OSSL_HPKE_SUITE, ptr %146, i32 0, i32 1
  store i16 %145, ptr %147, align 2, !tbaa !42
  %148 = load i16, ptr %8, align 2, !tbaa !17
  %149 = load ptr, ptr %5, align 8, !tbaa !34
  %150 = getelementptr inbounds nuw %struct.OSSL_HPKE_SUITE, ptr %149, i32 0, i32 2
  store i16 %148, ptr %150, align 2, !tbaa !43
  store i32 1, ptr %13, align 4, !tbaa !8
  br label %151

151:                                              ; preds = %141, %131, %140, %74
  %152 = load ptr, ptr %10, align 8, !tbaa !3
  call void @CRYPTO_free(ptr noundef %152, ptr noundef @.str, i32 noundef 526)
  %153 = load i32, ptr %13, align 4, !tbaa !8
  store i32 %153, ptr %3, align 4
  store i32 1, ptr %15, align 4
  br label %154

154:                                              ; preds = %151, %131, %66, %43, %34, %28
  call void @llvm.lifetime.end.p0(i64 4, ptr %14) #5
  call void @llvm.lifetime.end.p0(i64 4, ptr %13) #5
  call void @llvm.lifetime.end.p0(i64 4, ptr %12) #5
  call void @llvm.lifetime.end.p0(i64 8, ptr %11) #5
  call void @llvm.lifetime.end.p0(i64 8, ptr %10) #5
  call void @llvm.lifetime.end.p0(i64 8, ptr %9) #5
  call void @llvm.lifetime.end.p0(i64 2, ptr %8) #5
  call void @llvm.lifetime.end.p0(i64 2, ptr %7) #5
  call void @llvm.lifetime.end.p0(i64 2, ptr %6) #5
  %155 = load i32, ptr %3, align 4
  ret i32 %155
}