; Function Attrs: nounwind uwtable
define range(i32 0, 2) i32 @ossl_hpke_str2suite(ptr noundef %0, ptr noundef writeonly captures(address_is_null) %1) local_unnamed_addr #0 {
  %3 = icmp eq ptr %0, null
  br i1 %3, label %8, label %4

4:                                                ; preds = %2
  %5 = load i8, ptr %0, align 1, !tbaa !28
  %6 = icmp eq i8 %5, 0
  %7 = icmp eq ptr %1, null
  %or.cond = or i1 %7, %6
  br i1 %or.cond, label %8, label %9

8:                                                ; preds = %4, %2
  tail call void @ERR_new() #5
  tail call void @ERR_set_debug(ptr noundef nonnull @.str, i32 noundef 460, ptr noundef nonnull @__func__.ossl_hpke_str2suite) #5
  tail call void (i32, i32, ptr, ...) @ERR_set_error(i32 noundef 15, i32 noundef 786690, ptr noundef null) #5
  br label %85

9:                                                ; preds = %4
  %10 = tail call i64 @OPENSSL_strnlen(ptr noundef nonnull %0, i64 noundef 38) #5
  %11 = icmp ugt i64 %10, 37
  br i1 %11, label %12, label %13

12:                                               ; preds = %9
  tail call void @ERR_new() #5
  tail call void @ERR_set_debug(ptr noundef nonnull @.str, i32 noundef 465, ptr noundef nonnull @__func__.ossl_hpke_str2suite) #5
  tail call void (i32, i32, ptr, ...) @ERR_set_error(i32 noundef 15, i32 noundef 524550, ptr noundef null) #5
  br label %85

13:                                               ; preds = %9
  %14 = getelementptr i8, ptr %0, i64 %10
  %15 = getelementptr i8, ptr %14, i64 -1
  %16 = load i8, ptr %15, align 1, !tbaa !28
  %17 = icmp eq i8 %16, 44
  br i1 %17, label %85, label %.preheader96

.preheader96:                                     ; preds = %13, %21
  %.052 = phi ptr [ %22, %21 ], [ %0, %13 ]
  %.046 = phi i32 [ %.1, %21 ], [ 0, %13 ]
  %18 = load i8, ptr %.052, align 1, !tbaa !28
  switch i8 %18, label %21 [
    i8 0, label %23
    i8 44, label %19
  ]

19:                                               ; preds = %.preheader96
  %20 = add nsw i32 %.046, 1
  br label %21

21:                                               ; preds = %.preheader96, %19
  %.1 = phi i32 [ %20, %19 ], [ %.046, %.preheader96 ]
  %22 = getelementptr inbounds nuw i8, ptr %.052, i64 1
  br label %.preheader96, !llvm.loop !29

23:                                               ; preds = %.preheader96
  %.not68 = icmp eq i32 %.046, 2
  br i1 %.not68, label %24, label %85

24:                                               ; preds = %23
  %25 = add nuw nsw i64 %10, 1
  %26 = tail call noalias ptr @CRYPTO_memdup(ptr noundef nonnull %0, i64 noundef %25, ptr noundef nonnull @.str, i32 noundef 484) #5
  %27 = icmp eq ptr %26, null
  br i1 %27, label %.thread, label %.preheader

.preheader:                                       ; preds = %24, %75
  %.048127 = phi i32 [ %77, %75 ], [ 0, %24 ]
  %.050126 = phi i16 [ %.151, %75 ], [ 0, %24 ]
  %.153125 = phi ptr [ %.3, %75 ], [ %26, %24 ]
  %.055124 = phi i16 [ %.257, %75 ], [ 0, %24 ]
  %.058123 = phi i16 [ %.260, %75 ], [ 0, %24 ]
  %28 = tail call ptr @strchr(ptr noundef nonnull dereferenceable(1) %.153125, i32 noundef 44) #6
  %.not69 = icmp ne ptr %28, null
  br i1 %.not69, label %29, label %30

29:                                               ; preds = %.preheader
  store i8 0, ptr %28, align 1, !tbaa !28
  br label %30

30:                                               ; preds = %29, %.preheader
  %31 = icmp eq i32 %.048127, 0
  br i1 %31, label %.preheader.i, label %45

.preheader.i:                                     ; preds = %30, %41
  %.01114.i = phi i64 [ %42, %41 ], [ 0, %30 ]
  %32 = getelementptr inbounds nuw %struct.synonymttab_t, ptr @kemstrtab, i64 %.01114.i
  %33 = getelementptr inbounds nuw i8, ptr %32, i64 8
  br label %36

34:                                               ; preds = %36
  %35 = add nuw nsw i64 %.013.i, 1
  %exitcond.not.i = icmp eq i64 %35, 4
  br i1 %exitcond.not.i, label %41, label %36, !llvm.loop !30

36:                                               ; preds = %34, %.preheader.i
  %.013.i = phi i64 [ 0, %.preheader.i ], [ %35, %34 ]
  %37 = getelementptr inbounds nuw [4 x ptr], ptr %33, i64 0, i64 %.013.i
  %38 = load ptr, ptr %37, align 8, !tbaa !25
  %39 = tail call i32 @OPENSSL_strcasecmp(ptr noundef nonnull %.153125, ptr noundef %38) #5
  %40 = icmp eq i32 %39, 0
  br i1 %40, label %synonyms_name2id.exit, label %34

41:                                               ; preds = %34
  %42 = add nuw nsw i64 %.01114.i, 1
  %exitcond16.not.i = icmp eq i64 %42, 5
  br i1 %exitcond16.not.i, label %.thread, label %.preheader.i, !llvm.loop !31

synonyms_name2id.exit:                            ; preds = %36
  %43 = load i16, ptr %32, align 8, !tbaa !32
  %44 = icmp eq i16 %43, 0
  br i1 %44, label %.thread, label %45

45:                                               ; preds = %synonyms_name2id.exit, %30
  %.151 = phi i16 [ %43, %synonyms_name2id.exit ], [ %.050126, %30 ]
  %46 = icmp eq i32 %.048127, 1
  br i1 %46, label %.preheader.i70, label %60

.preheader.i70:                                   ; preds = %45, %56
  %.01114.i71 = phi i64 [ %57, %56 ], [ 0, %45 ]
  %47 = getelementptr inbounds nuw %struct.synonymttab_t, ptr @kdfstrtab, i64 %.01114.i71
  %48 = getelementptr inbounds nuw i8, ptr %47, i64 8
  br label %51

49:                                               ; preds = %51
  %50 = add nuw nsw i64 %.013.i72, 1
  %exitcond.not.i73 = icmp eq i64 %50, 4
  br i1 %exitcond.not.i73, label %56, label %51, !llvm.loop !30

51:                                               ; preds = %49, %.preheader.i70
  %.013.i72 = phi i64 [ 0, %.preheader.i70 ], [ %50, %49 ]
  %52 = getelementptr inbounds nuw [4 x ptr], ptr %48, i64 0, i64 %.013.i72
  %53 = load ptr, ptr %52, align 8, !tbaa !25
  %54 = tail call i32 @OPENSSL_strcasecmp(ptr noundef nonnull %.153125, ptr noundef %53) #5
  %55 = icmp eq i32 %54, 0
  br i1 %55, label %synonyms_name2id.exit76, label %49

56:                                               ; preds = %49
  %57 = add nuw nsw i64 %.01114.i71, 1
  %exitcond16.not.i74 = icmp eq i64 %57, 3
  br i1 %exitcond16.not.i74, label %.thread, label %.preheader.i70, !llvm.loop !31

synonyms_name2id.exit76:                          ; preds = %51
  %58 = load i16, ptr %47, align 8, !tbaa !32
  %59 = icmp eq i16 %58, 0
  br i1 %59, label %.thread, label %60

60:                                               ; preds = %synonyms_name2id.exit76, %45
  %.260 = phi i16 [ %58, %synonyms_name2id.exit76 ], [ %.058123, %45 ]
  %61 = icmp eq i32 %.048127, 2
  br i1 %61, label %.preheader.i77, label %75

.preheader.i77:                                   ; preds = %60, %71
  %.01114.i78 = phi i64 [ %72, %71 ], [ 0, %60 ]
  %62 = getelementptr inbounds nuw %struct.synonymttab_t, ptr @aeadstrtab, i64 %.01114.i78
  %63 = getelementptr inbounds nuw i8, ptr %62, i64 8
  br label %66

64:                                               ; preds = %66
  %65 = add nuw nsw i64 %.013.i79, 1
  %exitcond.not.i80 = icmp eq i64 %65, 4
  br i1 %exitcond.not.i80, label %71, label %66, !llvm.loop !30

66:                                               ; preds = %64, %.preheader.i77
  %.013.i79 = phi i64 [ 0, %.preheader.i77 ], [ %65, %64 ]
  %67 = getelementptr inbounds nuw [4 x ptr], ptr %63, i64 0, i64 %.013.i79
  %68 = load ptr, ptr %67, align 8, !tbaa !25
  %69 = tail call i32 @OPENSSL_strcasecmp(ptr noundef nonnull %.153125, ptr noundef %68) #5
  %70 = icmp eq i32 %69, 0
  br i1 %70, label %synonyms_name2id.exit83, label %64

71:                                               ; preds = %64
  %72 = add nuw nsw i64 %.01114.i78, 1
  %exitcond16.not.i81 = icmp eq i64 %72, 4
  br i1 %exitcond16.not.i81, label %.thread, label %.preheader.i77, !llvm.loop !31

synonyms_name2id.exit83:                          ; preds = %66
  %73 = load i16, ptr %62, align 8, !tbaa !32
  %74 = icmp eq i16 %73, 0
  br i1 %74, label %.thread, label %75

75:                                               ; preds = %60, %synonyms_name2id.exit83
  %.257 = phi i16 [ %73, %synonyms_name2id.exit83 ], [ %.055124, %60 ]
  %76 = getelementptr inbounds nuw i8, ptr %28, i64 1
  %.3 = select i1 %.not69, ptr %76, ptr null
  %77 = add nuw nsw i32 %.048127, 1
  %78 = icmp samesign ult i32 %.048127, 2
  %79 = select i1 %.not69, i1 %78, i1 false
  br i1 %79, label %.preheader, label %80

80:                                               ; preds = %75
  %81 = icmp ne i32 %77, 3
  %or.cond3 = select i1 %.not69, i1 true, i1 %81
  br i1 %or.cond3, label %.thread, label %82

82:                                               ; preds = %80
  store i16 %.151, ptr %1, align 2, !tbaa !34
  %83 = getelementptr inbounds nuw i8, ptr %1, i64 2
  store i16 %.260, ptr %83, align 2, !tbaa !36
  %84 = getelementptr inbounds nuw i8, ptr %1, i64 4
  store i16 %.257, ptr %84, align 2, !tbaa !37
  br label %.thread

.thread:                                          ; preds = %synonyms_name2id.exit83, %synonyms_name2id.exit76, %synonyms_name2id.exit, %41, %56, %71, %80, %24, %82
  %.047 = phi i32 [ 0, %24 ], [ 0, %80 ], [ 1, %82 ], [ 0, %71 ], [ 0, %56 ], [ 0, %41 ], [ 0, %synonyms_name2id.exit ], [ 0, %synonyms_name2id.exit76 ], [ 0, %synonyms_name2id.exit83 ]
  tail call void @CRYPTO_free(ptr noundef %26, ptr noundef nonnull @.str, i32 noundef 526) #5
  br label %85

85:                                               ; preds = %23, %13, %.thread, %12, %8
  %.0 = phi i32 [ 0, %8 ], [ 0, %12 ], [ %.047, %.thread ], [ 0, %13 ], [ 0, %23 ]
  ret i32 %.0
}